; Function Attrs: mustprogress uwtable
define noundef i64 @_ZNK5faiss19VStackInvertedLists13get_single_idEmm(ptr noundef nonnull readonly align 8 captures(none) dereferenceable(80) %0, i64 noundef %1, i64 noundef %2) unnamed_addr #2 align 2 {
  %4 = tail call fastcc noundef i32 @_ZN5faiss12_GLOBAL__N_117translate_list_noEPKNS_19VStackInvertedListsEl(ptr noundef %0, i64 noundef %1)
  %5 = getelementptr inbounds nuw i8, ptr %0, i64 56
  %6 = zext nneg i32 %4 to i64
  %7 = load ptr, ptr %5, align 8, !tbaa !47
  %8 = getelementptr inbounds nuw i64, ptr %7, i64 %6
  %9 = load i64, ptr %8, align 8, !tbaa !7
  %10 = sub i64 %1, %9
  %11 = getelementptr inbounds nuw i8, ptr %0, i64 32
  %12 = load ptr, ptr %11, align 8, !tbaa !53
  %13 = getelementptr inbounds nuw ptr, ptr %12, i64 %6
  %14 = load ptr, ptr %13, align 8, !tbaa !58
  %15 = load ptr, ptr %14, align 8, !tbaa !4
  %16 = getelementptr inbounds nuw i8, ptr %15, i64 56
  %17 = load ptr, ptr %16, align 8
  %18 = tail call noundef i64 %17(ptr noundef nonnull align 8 dereferenceable(25) %14, i64 noundef %10, i64 noundef %2)
  ret i64 %18
}